; Function Attrs: mustprogress uwtable
define void @_ZN6icu_756number4impl31CurrencyPluralInfoAffixProvider5setToERKNS_18CurrencyPluralInfoERKNS1_23DecimalFormatPropertiesER10UErrorCode(ptr noundef nonnull align 8 dereferenceable(2185) %this, ptr noundef nonnull align 8 dereferenceable(36) %cpi, ptr noundef nonnull align 8 dereferenceable(757) %properties, ptr noundef nonnull align 4 dereferenceable(4) %status) local_unnamed_addr #1 align 2 personality ptr @__gxx_personality_v0 {
entry:
  %pluralProperties = alloca %"struct.icu_75::number::impl::DecimalFormatProperties", align 8
  %patternString = alloca %"class.icu_75::UnicodeString", align 8
  %ref.tmp = alloca %"class.icu_75::UnicodeString", align 8
  %fBogus = getelementptr inbounds i8, ptr %this, i64 2184
  store i8 0, ptr %fBogus, align 8
  call void @_ZN6icu_756number4impl23DecimalFormatPropertiesC2ERKS2_(ptr noundef nonnull align 8 dereferenceable(757) %pluralProperties, ptr noundef nonnull align 8 dereferenceable(757) %properties)
  %fUnion2.i = getelementptr inbounds i8, ptr %patternString, i64 8
  %affixesByPlural = getelementptr inbounds i8, ptr %this, i64 8
  br label %for.body

for.body:                                         ; preds = %entry, %invoke.cont11
  %indvars.iv = phi i64 [ 0, %entry ], [ %indvars.iv.next, %invoke.cont11 ]
  %0 = trunc i64 %indvars.iv to i32
  %call = invoke noundef ptr @_ZN6icu_7514StandardPlural10getKeywordENS0_4FormE(i32 noundef %0)
          to label %invoke.cont2 unwind label %lpad

invoke.cont2:                                     ; preds = %for.body
  store ptr getelementptr inbounds ({ [13 x ptr] }, ptr @_ZTVN6icu_7513UnicodeStringE, i64 0, i32 0, i64 2), ptr %patternString, align 8
  store i16 2, ptr %fUnion2.i, align 8
  invoke void @_ZN6icu_7513UnicodeStringC1EPKc(ptr noundef nonnull align 8 dereferenceable(64) %ref.tmp, ptr noundef %call)
          to label %invoke.cont4 unwind label %lpad3

invoke.cont4:                                     ; preds = %invoke.cont2
  %call7 = invoke noundef nonnull align 8 dereferenceable(64) ptr @_ZNK6icu_7518CurrencyPluralInfo24getCurrencyPluralPatternERKNS_13UnicodeStringERS1_(ptr noundef nonnull align 8 dereferenceable(36) %cpi, ptr noundef nonnull align 8 dereferenceable(64) %ref.tmp, ptr noundef nonnull align 8 dereferenceable(64) %patternString)
          to label %invoke.cont6 unwind label %lpad5

invoke.cont6:                                     ; preds = %invoke.cont4
  %call9 = invoke noundef nonnull align 8 dereferenceable(64) ptr @_ZN6icu_7513UnicodeStringaSERKS0_(ptr noundef nonnull align 8 dereferenceable(64) %patternString, ptr noundef nonnull align 8 dereferenceable(64) %call7)
          to label %invoke.cont8 unwind label %lpad5

invoke.cont8:                                     ; preds = %invoke.cont6
  call void @_ZN6icu_7513UnicodeStringD1Ev(ptr noundef nonnull align 8 dereferenceable(64) %ref.tmp) #12
  invoke void @_ZN6icu_756number4impl13PatternParser25parseToExistingPropertiesERKNS_13UnicodeStringERNS1_23DecimalFormatPropertiesENS1_14IgnoreRoundingER10UErrorCode(ptr noundef nonnull align 8 dereferenceable(64) %patternString, ptr noundef nonnull align 8 dereferenceable(757) %pluralProperties, i32 noundef 0, ptr noundef nonnull align 4 dereferenceable(4) %status)
          to label %invoke.cont10 unwind label %lpad3

invoke.cont10:                                    ; preds = %invoke.cont8
  %arrayidx = getelementptr inbounds [8 x %"class.icu_75::number::impl::PropertiesAffixPatternProvider"], ptr %affixesByPlural, i64 0, i64 %indvars.iv
  invoke void @_ZN6icu_756number4impl30PropertiesAffixPatternProvider5setToERKNS1_23DecimalFormatPropertiesER10UErrorCode(ptr noundef nonnull align 8 dereferenceable(267) %arrayidx, ptr noundef nonnull align 8 dereferenceable(757) %pluralProperties, ptr noundef nonnull align 4 dereferenceable(4) %status)
          to label %invoke.cont11 unwind label %lpad3

invoke.cont11:                                    ; preds = %invoke.cont10
  call void @_ZN6icu_7513UnicodeStringD1Ev(ptr noundef nonnull align 8 dereferenceable(64) %patternString) #12
  %indvars.iv.next = add nuw nsw i64 %indvars.iv, 1
  %exitcond.not = icmp eq i64 %indvars.iv.next, 8
  br i1 %exitcond.not, label %for.end, label %for.body, !llvm.loop !7

lpad:                                             ; preds = %for.body
  %1 = landingpad { ptr, i32 }
          cleanup
  br label %ehcleanup12

lpad3:                                            ; preds = %invoke.cont10, %invoke.cont8, %invoke.cont2
  %2 = landingpad { ptr, i32 }
          cleanup
  br label %ehcleanup

lpad5:                                            ; preds = %invoke.cont6, %invoke.cont4
  %3 = landingpad { ptr, i32 }
          cleanup
  call void @_ZN6icu_7513UnicodeStringD1Ev(ptr noundef nonnull align 8 dereferenceable(64) %ref.tmp) #12
  br label %ehcleanup

ehcleanup:                                        ; preds = %lpad5, %lpad3
  %.pn = phi { ptr, i32 } [ %2, %lpad3 ], [ %3, %lpad5 ]
  call void @_ZN6icu_7513UnicodeStringD1Ev(ptr noundef nonnull align 8 dereferenceable(64) %patternString) #12
  br label %ehcleanup12

for.end:                                          ; preds = %invoke.cont11
  call void @_ZN6icu_756number4impl23DecimalFormatPropertiesD2Ev(ptr noundef nonnull align 8 dereferenceable(757) %pluralProperties) #12
  ret void

ehcleanup12:                                      ; preds = %ehcleanup, %lpad
  %.pn.pn = phi { ptr, i32 } [ %.pn, %ehcleanup ], [ %1, %lpad ]
  call void @_ZN6icu_756number4impl23DecimalFormatPropertiesD2Ev(ptr noundef nonnull align 8 dereferenceable(757) %pluralProperties) #12
  resume { ptr, i32 } %.pn.pn
}